; Function Attrs: nounwind uwtable
define hidden i32 @SDL_GetSurfaceProperties_REAL(ptr noundef captures(address_is_null) %0) local_unnamed_addr #2 {
  %.not.i = icmp eq ptr %0, null
  br i1 %.not.i, label %SDL_SurfaceValid.exit.thread, label %SDL_SurfaceValid.exit

SDL_SurfaceValid.exit:                            ; preds = %1
  %2 = getelementptr inbounds nuw i8, ptr %0, i64 40
  %3 = load ptr, ptr %2, align 8
  %4 = icmp eq ptr %3, @SDL_surface_magic
  br i1 %4, label %6, label %SDL_SurfaceValid.exit.thread

SDL_SurfaceValid.exit.thread:                     ; preds = %1, %SDL_SurfaceValid.exit
  %5 = tail call zeroext i1 (ptr, ...) @SDL_SetError_REAL(ptr noundef nonnull @.str, ptr noundef nonnull @.str.5) #10
  br label %11

6:                                                ; preds = %SDL_SurfaceValid.exit
  %7 = getelementptr inbounds nuw i8, ptr %0, i64 52
  %8 = load i32, ptr %7, align 4
  %.not = icmp eq i32 %8, 0
  br i1 %.not, label %9, label %11

9:                                                ; preds = %6
  %10 = tail call i32 @SDL_CreateProperties_REAL() #10
  store i32 %10, ptr %7, align 4
  br label %11

11:                                               ; preds = %6, %9, %SDL_SurfaceValid.exit.thread
  %.0 = phi i32 [ 0, %SDL_SurfaceValid.exit.thread ], [ %10, %9 ], [ %8, %6 ]
  ret i32 %.0
}